   1               		.file	"rtc.c"
   2               	__SREG__ = 0x3f
   3               	__SP_H__ = 0x3e
   4               	__SP_L__ = 0x3d
   5               	__CCP__  = 0x34
   6               	__tmp_reg__ = 0
   7               	__zero_reg__ = 1
  15               	.Ltext0:
  16               	.global	RTC_Get_Sec
  18               	RTC_Get_Sec:
  19               	.LFB15:
  20               	.LM1:
  21               	/* prologue: function */
  22               	/* frame size = 0 */
  23               	.LM2:
  24 0000 80E0      		ldi r24,lo8(0)
  25 0002 0E94 0000 		call I2C_Read_Register
  26               	.LM3:
  27 0006 282F      		mov r18,r24
  28               	.LVL0:
  29 0008 30E0      		ldi r19,lo8(0)
  30               	.LVL1:
  31 000a 2077      		andi r18,lo8(112)
  32 000c 3070      		andi r19,hi8(112)
  33               	.LVL2:
  34 000e 94E0      		ldi r25,4
  35 0010 3595      	1:	asr r19
  36 0012 2795      		ror r18
  37 0014 9A95      		dec r25
  38 0016 01F4      		brne 1b
  39               	.LVL3:
  40 0018 9AE0      		ldi r25,lo8(10)
  41 001a 929F      		mul r25,r18
  42 001c 902D      		mov r25,r0
  43 001e 1124      		clr r1
  44               	.LVL4:
  45 0020 8F70      		andi r24,lo8(15)
  46               	.LVL5:
  47               	.LM4:
  48 0022 890F      		add r24,r25
  49               	.LVL6:
  50               	/* epilogue start */
  51 0024 0895      		ret
  52               	.LFE15:
  54               	.global	RTC_Get_Min
  56               	RTC_Get_Min:
  57               	.LFB14:
  58               	.LM5:
  59               	/* prologue: function */
  60               	/* frame size = 0 */
  61               	.LM6:
  62 0026 81E0      		ldi r24,lo8(1)
  63 0028 0E94 0000 		call I2C_Read_Register
  64               	.LM7:
  65 002c 282F      		mov r18,r24
  66               	.LVL7:
  67 002e 30E0      		ldi r19,lo8(0)
  68               	.LVL8:
  69 0030 2077      		andi r18,lo8(112)
  70 0032 3070      		andi r19,hi8(112)
  71               	.LVL9:
  72 0034 44E0      		ldi r20,4
  73 0036 3595      	1:	asr r19
  74 0038 2795      		ror r18
  75 003a 4A95      		dec r20
  76 003c 01F4      		brne 1b
  77               	.LVL10:
  78 003e 9AE0      		ldi r25,lo8(10)
  79 0040 929F      		mul r25,r18
  80 0042 902D      		mov r25,r0
  81 0044 1124      		clr r1
  82               	.LVL11:
  83 0046 8F70      		andi r24,lo8(15)
  84               	.LVL12:
  85               	.LM8:
  86 0048 890F      		add r24,r25
  87               	.LVL13:
  88               	/* epilogue start */
  89 004a 0895      		ret
  90               	.LFE14:
  92               	.global	RTC_Get_Hr
  94               	RTC_Get_Hr:
  95               	.LFB13:
  96               	.LM9:
  97               	/* prologue: function */
  98               	/* frame size = 0 */
  99               	.LM10:
 100 004c 82E0      		ldi r24,lo8(2)
 101 004e 0E94 0000 		call I2C_Read_Register
 102               	.LM11:
 103 0052 282F      		mov r18,r24
 104               	.LVL14:
 105 0054 30E0      		ldi r19,lo8(0)
 106 0056 982F      		mov r25,r24
 107 0058 9F70      		andi r25,lo8(15)
 108 005a 86FF      		sbrs r24,6
 109 005c 00C0      		rjmp .L6
 110               	.LVL15:
 111               	.LM12:
 112 005e 2071      		andi r18,lo8(16)
 113 0060 3070      		andi r19,hi8(16)
 114 0062 64E0      		ldi r22,4
 115 0064 3595      	1:	asr r19
 116 0066 2795      		ror r18
 117 0068 6A95      		dec r22
 118 006a 01F4      		brne 1b
 119 006c 8AE0      		ldi r24,lo8(10)
 120 006e 829F      		mul r24,r18
 121 0070 802D      		mov r24,r0
 122 0072 1124      		clr r1
 123               	.LVL16:
 124               	.LM13:
 125 0074 890F      		add r24,r25
 126 0076 0895      		ret
 127               	.LVL17:
 128               	.L6:
 129               	.LM14:
 130 0078 2073      		andi r18,lo8(48)
 131 007a 3070      		andi r19,hi8(48)
 132 007c 54E0      		ldi r21,4
 133 007e 3595      	1:	asr r19
 134 0080 2795      		ror r18
 135 0082 5A95      		dec r21
 136 0084 01F4      		brne 1b
 137 0086 8AE0      		ldi r24,lo8(10)
 138 0088 829F      		mul r24,r18
 139 008a 802D      		mov r24,r0
 140 008c 1124      		clr r1
 141               	.LVL18:
 142               	.LM15:
 143 008e 890F      		add r24,r25
 144               	.LVL19:
 145               	.LM16:
 146 0090 0895      		ret
 147               	.LFE13:
 149               	.global	RTC_Get_AmPm
 151               	RTC_Get_AmPm:
 152               	.LFB12:
 153               	.LM17:
 154               	/* prologue: function */
 155               	/* frame size = 0 */
 156               	.LM18:
 157 0092 82E0      		ldi r24,lo8(2)
 158 0094 0E94 0000 		call I2C_Read_Register
 159 0098 90E0      		ldi r25,lo8(0)
 160               	.LVL20:
 161 009a 75E0      		ldi r23,5
 162 009c 9695      	1:	lsr r25
 163 009e 8795      		ror r24
 164 00a0 7A95      		dec r23
 165 00a2 01F4      		brne 1b
 166               	.LVL21:
 167               	.LM19:
 168 00a4 8170      		andi r24,lo8(1)
 169               	.LVL22:
 170               	/* epilogue start */
 171 00a6 0895      		ret
 172               	.LFE12:
 174               	.global	RTC_Set_Time
 176               	RTC_Set_Time:
 177               	.LFB10:
 178               	.LM20:
 179               	.LVL23:
 180 00a8 FF92      		push r15
 181 00aa 0F93      		push r16
 182 00ac 1F93      		push r17
 183               	/* prologue: function */
 184               	/* frame size = 0 */
 185 00ae 182F      		mov r17,r24
 186 00b0 062F      		mov r16,r22
 187 00b2 F42E      		mov r15,r20
 188               	.LM21:
 189 00b4 82E0      		ldi r24,lo8(2)
 190               	.LVL24:
 191 00b6 0E94 0000 		call I2C_Read_Register
 192               	.LVL25:
 193               	.LM22:
 194 00ba 282F      		mov r18,r24
 195               	.LVL26:
 196 00bc 2076      		andi r18,lo8(96)
 197               	.LM23:
 198 00be 812F      		mov r24,r17
 199 00c0 6AE0      		ldi r22,lo8(10)
 200 00c2 0E94 0000 		call __udivmodqi4
 201 00c6 382F      		mov r19,r24
 202               	.LM24:
 203 00c8 812F      		mov r24,r17
 204 00ca 0E94 0000 		call __udivmodqi4
 205               	.LM25:
 206 00ce 26FF      		sbrs r18,6
 207 00d0 00C0      		rjmp .L12
 208               	.LM26:
 209 00d2 1D30      		cpi r17,lo8(13)
 210 00d4 00F0      		brlo .L13
 211 00d6 51E0      		ldi r21,lo8(1)
 212               	.LVL27:
 213 00d8 40E0      		ldi r20,lo8(0)
 214               	.LVL28:
 215 00da 00C0      		rjmp .L14
 216               	.LVL29:
 217               	.L13:
 218               	.LM27:
 219 00dc 292B      		or r18,r25
 220 00de 432F      		mov r20,r19
 221               	.LVL30:
 222 00e0 4295      		swap r20
 223 00e2 407F      		andi r20,lo8(-16)
 224 00e4 422B      		or r20,r18
 225 00e6 00C0      		rjmp .L19
 226               	.LVL31:
 227               	.L12:
 228               	.LM28:
 229 00e8 432F      		mov r20,r19
 230               	.LVL32:
 231 00ea 4295      		swap r20
 232 00ec 407F      		andi r20,lo8(-16)
 233 00ee 492B      		or r20,r25
 234               	.L19:
 235 00f0 50E0      		ldi r21,lo8(0)
 236               	.LVL33:
 237               	.L14:
 238               	.LM29:
 239 00f2 0C33      		cpi r16,lo8(60)
 240 00f4 00F0      		brlo .L15
 241 00f6 52E0      		ldi r21,lo8(2)
 242 00f8 10E0      		ldi r17,lo8(0)
 243               	.LVL34:
 244 00fa 00C0      		rjmp .L16
 245               	.LVL35:
 246               	.L15:
 247               	.LM30:
 248 00fc 802F      		mov r24,r16
 249 00fe 6AE0      		ldi r22,lo8(10)
 250 0100 0E94 0000 		call __udivmodqi4
 251 0104 282F      		mov r18,r24
 252               	.LVL36:
 253 0106 30E0      		ldi r19,lo8(0)
 254 0108 F4E0      		ldi r31,4
 255 010a 220F      	1:	lsl r18
 256 010c 331F      		rol r19
 257 010e FA95      		dec r31
 258 0110 01F4      		brne 1b
 259 0112 802F      		mov r24,r16
 260 0114 0E94 0000 		call __udivmodqi4
 261 0118 192F      		mov r17,r25
 262               	.LVL37:
 263 011a 122B      		or r17,r18
 264               	.LVL38:
 265               	.L16:
 266               	.LM31:
 267 011c 8BE3      		ldi r24,lo8(59)
 268 011e 8F15      		cp r24,r15
 269 0120 00F0      		brlo .L18
 270               	.LM32:
 271 0122 5523      		tst r21
 272 0124 01F4      		brne .L18
 273               	.LM33:
 274 0126 82E0      		ldi r24,lo8(2)
 275 0128 642F      		mov r22,r20
 276 012a 0E94 0000 		call I2C_Write_Register
 277               	.LVL39:
 278               	.LM34:
 279 012e 81E0      		ldi r24,lo8(1)
 280 0130 612F      		mov r22,r17
 281 0132 0E94 0000 		call I2C_Write_Register
 282               	.LM35:
 283 0136 8F2D      		mov r24,r15
 284 0138 6AE0      		ldi r22,lo8(10)
 285 013a 0E94 0000 		call __udivmodqi4
 286 013e 282F      		mov r18,r24
 287 0140 30E0      		ldi r19,lo8(0)
 288 0142 E4E0      		ldi r30,4
 289 0144 220F      	1:	lsl r18
 290 0146 331F      		rol r19
 291 0148 EA95      		dec r30
 292 014a 01F4      		brne 1b
 293 014c 8F2D      		mov r24,r15
 294 014e 0E94 0000 		call __udivmodqi4
 295 0152 922B      		or r25,r18
 296 0154 80E0      		ldi r24,lo8(0)
 297 0156 692F      		mov r22,r25
 298 0158 0E94 0000 		call I2C_Write_Register
 299               	.LVL40:
 300               	.L18:
 301               	/* epilogue start */
 302               	.LM36:
 303 015c 1F91      		pop r17
 304               	.LVL41:
 305 015e 0F91      		pop r16
 306               	.LVL42:
 307 0160 FF90      		pop r15
 308               	.LVL43:
 309 0162 0895      		ret
 310               	.LFE10:
 312               	.global	RTC_Set_12H_PM
 314               	RTC_Set_12H_PM:
 315               	.LFB9:
 316               	.LM37:
 317               	/* prologue: function */
 318               	/* frame size = 0 */
 319               	.LM38:
 320 0164 82E0      		ldi r24,lo8(2)
 321 0166 60E6      		ldi r22,lo8(96)
 322 0168 0E94 0000 		call I2C_Write_Register
 323               	/* epilogue start */
 324               	.LM39:
 325 016c 0895      		ret
 326               	.LFE9:
 328               	.global	RTC_Set_12H_AM
 330               	RTC_Set_12H_AM:
 331               	.LFB8:
 332               	.LM40:
 333               	/* prologue: function */
 334               	/* frame size = 0 */
 335               	.LM41:
 336 016e 82E0      		ldi r24,lo8(2)
 337 0170 60E4      		ldi r22,lo8(64)
 338 0172 0E94 0000 		call I2C_Write_Register
 339               	/* epilogue start */
 340               	.LM42:
 341 0176 0895      		ret
 342               	.LFE8:
 344               	.global	RTC_Set_24H
 346               	RTC_Set_24H:
 347               	.LFB7:
 348               	.LM43:
 349               	/* prologue: function */
 350               	/* frame size = 0 */
 351               	.LM44:
 352 0178 82E0      		ldi r24,lo8(2)
 353 017a 60E0      		ldi r22,lo8(0)
 354 017c 0E94 0000 		call I2C_Write_Register
 355               	/* epilogue start */
 356               	.LM45:
 357 0180 0895      		ret
 358               	.LFE7:
 360               	.global	RTC_Set_Time_With_Format
 362               	RTC_Set_Time_With_Format:
 363               	.LFB11:
 364               	.LM46:
 365               	.LVL44:
 366 0182 EF92      		push r14
 367 0184 FF92      		push r15
 368 0186 0F93      		push r16
 369               	.LVL45:
 370 0188 1F93      		push r17
 371               	/* prologue: function */
 372               	/* frame size = 0 */
 373 018a 182F      		mov r17,r24
 374 018c F62E      		mov r15,r22
 375 018e E42E      		mov r14,r20
 376               	.LM47:
 377 0190 2223      		tst r18
 378 0192 01F4      		brne .L27
 379               	.LVL46:
 380               	.LBB8:
 381               	.LBB9:
 382               	.LM48:
 383 0194 82E0      		ldi r24,lo8(2)
 384 0196 60E0      		ldi r22,lo8(0)
 385 0198 00C0      		rjmp .L31
 386               	.LVL47:
 387               	.L27:
 388               	.LBE9:
 389               	.LBE8:
 390               	.LM49:
 391 019a 2130      		cpi r18,lo8(1)
 392 019c 01F4      		brne .L28
 393               	.LM50:
 394 019e 0023      		tst r16
 395               	.LVL48:
 396 01a0 01F4      		brne .L29
 397               	.LBB10:
 398               	.LBB11:
 399               	.LM51:
 400 01a2 82E0      		ldi r24,lo8(2)
 401 01a4 60E4      		ldi r22,lo8(64)
 402 01a6 00C0      		rjmp .L31
 403               	.LVL49:
 404               	.L29:
 405               	.LBE11:
 406               	.LBE10:
 407               	.LM52:
 408 01a8 0130      		cpi r16,lo8(1)
 409 01aa 01F4      		brne .L28
 410               	.LBB12:
 411               	.LBB13:
 412               	.LM53:
 413 01ac 82E0      		ldi r24,lo8(2)
 414 01ae 60E6      		ldi r22,lo8(96)
 415               	.L31:
 416 01b0 0E94 0000 		call I2C_Write_Register
 417               	.LVL50:
 418               	.L28:
 419               	.LBE13:
 420               	.LBE12:
 421               	.LM54:
 422 01b4 812F      		mov r24,r17
 423 01b6 6F2D      		mov r22,r15
 424 01b8 4E2D      		mov r20,r14
 425 01ba 0E94 0000 		call RTC_Set_Time
 426               	.LVL51:
 427               	/* epilogue start */
 428               	.LM55:
 429 01be 1F91      		pop r17
 430               	.LVL52:
 431 01c0 0F91      		pop r16
 432               	.LVL53:
 433 01c2 FF90      		pop r15
 434               	.LVL54:
 435 01c4 EF90      		pop r14
 436               	.LVL55:
 437 01c6 0895      		ret
 438               	.LFE11:
 440               	.global	RTC_Init
 442               	RTC_Init:
 443               	.LFB6:
 444               	.LM56:
 445               	/* prologue: function */
 446               	/* frame size = 0 */
 447               	.LM57:
 448 01c8 0E94 0000 		call I2C_Init
 449               	/* epilogue start */
 450               	.LM58:
 451 01cc 0895      		ret
 452               	.LFE6:
 550               	.Letext0:
DEFINED SYMBOLS
                            *ABS*:00000000 rtc.c
C:\Users\FARIDU~1\AppData\Local\Temp/ccMSq4CL.s:2      *ABS*:0000003f __SREG__
C:\Users\FARIDU~1\AppData\Local\Temp/ccMSq4CL.s:3      *ABS*:0000003e __SP_H__
C:\Users\FARIDU~1\AppData\Local\Temp/ccMSq4CL.s:4      *ABS*:0000003d __SP_L__
C:\Users\FARIDU~1\AppData\Local\Temp/ccMSq4CL.s:5      *ABS*:00000034 __CCP__
C:\Users\FARIDU~1\AppData\Local\Temp/ccMSq4CL.s:6      *ABS*:00000000 __tmp_reg__
C:\Users\FARIDU~1\AppData\Local\Temp/ccMSq4CL.s:7      *ABS*:00000001 __zero_reg__
C:\Users\FARIDU~1\AppData\Local\Temp/ccMSq4CL.s:18     .text:00000000 RTC_Get_Sec
C:\Users\FARIDU~1\AppData\Local\Temp/ccMSq4CL.s:56     .text:00000026 RTC_Get_Min
C:\Users\FARIDU~1\AppData\Local\Temp/ccMSq4CL.s:94     .text:0000004c RTC_Get_Hr
C:\Users\FARIDU~1\AppData\Local\Temp/ccMSq4CL.s:151    .text:00000092 RTC_Get_AmPm
C:\Users\FARIDU~1\AppData\Local\Temp/ccMSq4CL.s:176    .text:000000a8 RTC_Set_Time
C:\Users\FARIDU~1\AppData\Local\Temp/ccMSq4CL.s:314    .text:00000164 RTC_Set_12H_PM
C:\Users\FARIDU~1\AppData\Local\Temp/ccMSq4CL.s:330    .text:0000016e RTC_Set_12H_AM
C:\Users\FARIDU~1\AppData\Local\Temp/ccMSq4CL.s:346    .text:00000178 RTC_Set_24H
C:\Users\FARIDU~1\AppData\Local\Temp/ccMSq4CL.s:362    .text:00000182 RTC_Set_Time_With_Format
C:\Users\FARIDU~1\AppData\Local\Temp/ccMSq4CL.s:442    .text:000001c8 RTC_Init

UNDEFINED SYMBOLS
I2C_Read_Register
__udivmodqi4
I2C_Write_Register
I2C_Init
